Certificate:
    Data:
        Version: 3 (0x2)
        Serial Number: 4098 (0x1002)
    Signature Algorithm: sha256WithRSAEncryption
        Issuer: C=CN, ST=Shanghai, L=Shanghai, O=serverguan, CN=serverguan
        Validity
            Not Before: Dec 25 11:08:21 2018 GMT
            Not After : Dec 25 11:08:21 2019 GMT
        Subject: C=CN, ST=Shanghai, O=serverguan, OU=serverguan, CN=serverguan
        Subject Public Key Info:
            Public Key Algorithm: rsaEncryption
                Public-Key: (1024 bit)
                Modulus:
                    00:cb:80:08:f9:0c:4a:4d:c8:e2:f7:2f:75:3e:d9:
                    0d:73:89:7e:eb:08:93:dc:f9:10:88:95:e6:22:8f:
                    52:4d:0c:2b:7f:7a:16:77:c4:f2:d5:21:75:27:ba:
                    07:87:37:37:72:92:e1:45:53:6f:c0:36:c0:31:a2:
                    5c:a1:7f:2b:2e:f1:bc:79:a2:85:9d:74:4c:f6:24:
                    f5:71:6f:89:bf:1b:d6:0a:69:8d:b0:24:94:ed:e9:
                    42:8f:5f:32:d0:90:55:57:82:49:9e:b0:ff:6f:9a:
                    28:25:9b:c3:f1:8e:3b:a1:c2:9a:ac:62:1a:3d:9d:
                    99:eb:a3:2e:f0:01:92:50:11
                Exponent: 65537 (0x10001)
        X509v3 extensions:
            X509v3 Basic Constraints: 
                CA:FALSE
            Netscape Comment: 
                OpenSSL Generated Certificate
            X509v3 Subject Key Identifier: 
                3C:EA:C5:D3:6A:39:41:50:F4:A3:DC:E1:C8:62:7D:AE:10:C0:DC:50
            X509v3 Authority Key Identifier: 
                keyid:24:4D:A5:35:D8:45:D8:12:84:B7:25:83:A7:E4:B6:A7:6D:3B:C0:77

    Signature Algorithm: sha256WithRSAEncryption
         42:d2:29:4f:63:74:c1:4d:39:48:8a:d1:58:8e:47:3f:f8:9f:
         a2:06:c2:91:80:bf:1f:e0:fd:71:dc:73:76:31:55:fb:6d:88:
         31:88:af:93:c5:1e:9e:a5:6d:27:6c:ff:cc:8e:1c:1c:df:c5:
         72:af:23:10:9b:bc:23:30:28:e9:f4:99:a3:d8:d0:46:72:dd:
         9b:8b:5e:06:e9:90:15:23:2d:68:e0:46:76:9d:16:2f:1e:b8:
         fd:49:11:f5:06:48:c5:f0:e3:38:68:4c:01:db:d8:0f:56:25:
         1f:2f:3c:3b:0e:4e:e7:af:40:23:2d:f5:a6:3f:74:21:86:f3:
         1f:0c
-----BEGIN CERTIFICATE-----
MIICrjCCAhegAwIBAgICEAIwDQYJKoZIhvcNAQELBQAwXTELMAkGA1UEBhMCQ04x
ETAPBgNVBAgMCFNoYW5naGFpMREwDwYDVQQHDAhTaGFuZ2hhaTETMBEGA1UECgwK
c2VydmVyZ3VhbjETMBEGA1UEAwwKc2VydmVyZ3VhbjAeFw0xODEyMjUxMTA4MjFa
Fw0xOTEyMjUxMTA4MjFaMF8xCzAJBgNVBAYTAkNOMREwDwYDVQQIDAhTaGFuZ2hh
aTETMBEGA1UECgwKc2VydmVyZ3VhbjETMBEGA1UECwwKc2VydmVyZ3VhbjETMBEG
A1UEAwwKc2VydmVyZ3VhbjCBnzANBgkqhkiG9w0BAQEFAAOBjQAwgYkCgYEAy4AI
+QxKTcji9y91PtkNc4l+6wiT3PkQiJXmIo9STQwrf3oWd8Ty1SF1J7oHhzc3cpLh
RVNvwDbAMaJcoX8rLvG8eaKFnXRM9iT1cW+JvxvWCmmNsCSU7elCj18y0JBVV4JJ
nrD/b5ooJZvD8Y47ocKarGIaPZ2Z66Mu8AGSUBECAwEAAaN7MHkwCQYDVR0TBAIw
ADAsBglghkgBhvhCAQ0EHxYdT3BlblNTTCBHZW5lcmF0ZWQgQ2VydGlmaWNhdGUw
HQYDVR0OBBYEFDzqxdNqOUFQ9KPc4chifa4QwNxQMB8GA1UdIwQYMBaAFCRNpTXY
RdgShLclg6fktqdtO8B3MA0GCSqGSIb3DQEBCwUAA4GBAELSKU9jdMFNOUiK0ViO
Rz/4n6IGwpGAvx/g/XHcc3YxVfttiDGIr5PFHp6lbSds/8yOHBzfxXKvIxCbvCMw
KOn0maPY0EZy3ZuLXgbpkBUjLWjgRnadFi8euP1JEfUGSMXw4zhoTAHb2A9WJR8v
PDsOTuevQCMt9aY/dCGG8x8M
-----END CERTIFICATE-----
