Certificate:
    Data:
        Version: 3 (0x2)
        Serial Number: 4099 (0x1003)
    Signature Algorithm: sha256WithRSAEncryption
        Issuer: C=CN, ST=SH, L=SH, O=FD, OU=FD, CN=serverguan.com
        Validity
            Not Before: Dec 26 04:31:29 2018 GMT
            Not After : Dec 26 04:31:29 2019 GMT
        Subject: C=CN, ST=SH, O=FD, OU=FD, CN=serverguan.com
        Subject Public Key Info:
            Public Key Algorithm: rsaEncryption
                Public-Key: (1024 bit)
                Modulus:
                    00:cb:ed:b6:71:62:ce:fe:1a:ee:e7:ef:76:ec:03:
                    60:cd:4f:2c:40:c4:48:38:d2:fa:74:51:70:99:de:
                    0e:cd:6d:29:97:56:ff:78:62:17:1c:ca:f1:3c:81:
                    c5:96:42:5c:df:e8:e8:9d:68:44:fa:99:8e:8f:b6:
                    e9:fe:cf:7a:8d:39:d4:c8:ca:ed:a4:34:af:46:54:
                    68:17:59:5d:e3:db:19:36:04:c8:c7:71:ed:20:5a:
                    9e:37:19:61:1c:53:b2:a9:c3:77:aa:6e:43:36:fb:
                    e3:e4:04:89:2b:f6:02:1c:98:82:92:f9:1c:bb:ad:
                    f8:bd:4d:18:fb:c9:ee:22:4f
                Exponent: 65537 (0x10001)
        X509v3 extensions:
            X509v3 Basic Constraints: 
                CA:FALSE
            Netscape Comment: 
                OpenSSL Generated Certificate
            X509v3 Subject Key Identifier: 
                A2:14:30:CF:33:DD:78:04:32:9C:C3:2B:26:B9:D9:AB:2D:F7:85:51
            X509v3 Authority Key Identifier: 
                keyid:AC:71:2F:36:83:0E:BF:CA:FE:BF:1C:25:4C:5A:06:5F:12:B5:DA:4E

    Signature Algorithm: sha256WithRSAEncryption
         b3:df:2d:2c:5d:72:8f:52:b8:0b:a1:fb:2b:47:4d:4c:a8:1e:
         30:44:a7:4b:74:d5:8a:d8:7f:dd:8b:31:30:71:a3:0e:28:26:
         ca:c0:32:f6:c5:82:fa:58:8d:6f:e3:4a:34:75:82:8c:78:ff:
         0e:cf:80:78:da:9a:7b:a6:e1:d5:72:54:7c:03:53:f9:80:ed:
         7b:a8:56:68:51:87:b7:e2:26:d8:9a:d4:97:bd:f6:9d:0a:e4:
         6f:f3:37:d5:b3:37:f0:12:c9:15:7d:ff:d6:ad:52:f3:06:dd:
         98:9b:ba:57:aa:f0:37:d0:bf:17:f2:8e:f0:ae:bd:47:9c:24:
         39:98
-----BEGIN CERTIFICATE-----
MIICmTCCAgKgAwIBAgICEAMwDQYJKoZIhvcNAQELBQAwWjELMAkGA1UEBhMCQ04x
CzAJBgNVBAgMAlNIMQswCQYDVQQHDAJTSDELMAkGA1UECgwCRkQxCzAJBgNVBAsM
AkZEMRcwFQYDVQQDDA5zZXJ2ZXJndWFuLmNvbTAeFw0xODEyMjYwNDMxMjlaFw0x
OTEyMjYwNDMxMjlaME0xCzAJBgNVBAYTAkNOMQswCQYDVQQIDAJTSDELMAkGA1UE
CgwCRkQxCzAJBgNVBAsMAkZEMRcwFQYDVQQDDA5zZXJ2ZXJndWFuLmNvbTCBnzAN
BgkqhkiG9w0BAQEFAAOBjQAwgYkCgYEAy+22cWLO/hru5+927ANgzU8sQMRIONL6
dFFwmd4OzW0pl1b/eGIXHMrxPIHFlkJc3+jonWhE+pmOj7bp/s96jTnUyMrtpDSv
RlRoF1ld49sZNgTIx3HtIFqeNxlhHFOyqcN3qm5DNvvj5ASJK/YCHJiCkvkcu634
vU0Y+8nuIk8CAwEAAaN7MHkwCQYDVR0TBAIwADAsBglghkgBhvhCAQ0EHxYdT3Bl
blNTTCBHZW5lcmF0ZWQgQ2VydGlmaWNhdGUwHQYDVR0OBBYEFKIUMM8z3XgEMpzD
Kya52ast94VRMB8GA1UdIwQYMBaAFKxxLzaDDr/K/r8cJUxaBl8StdpOMA0GCSqG
SIb3DQEBCwUAA4GBALPfLSxdco9SuAuh+ytHTUyoHjBEp0t01YrYf92LMTBxow4o
JsrAMvbFgvpYjW/jSjR1gox4/w7PgHjamnum4dVyVHwDU/mA7XuoVmhRh7fiJtia
1Je99p0K5G/zN9WzN/ASyRV9/9atUvMG3Zibuleq8DfQvxfyjvCuvUecJDmY
-----END CERTIFICATE-----
